; Function Attrs: mustprogress uwtable
define noundef i32 @_ZN6icu_7522RuleBasedBreakIterator4lastEv(ptr noundef nonnull align 8 dereferenceable(745) %this) unnamed_addr #1 align 2 {
entry:
  %fText = getelementptr inbounds i8, ptr %this, i64 480
  %call = tail call i64 @utext_nativeLength_75(ptr noundef nonnull %fText)
  %conv = trunc i64 %call to i32
  %vtable = load ptr, ptr %this, align 8
  %vfn = getelementptr inbounds i8, ptr %vtable, i64 136
  %0 = load ptr, ptr %vfn, align 8
  %call2 = tail call noundef signext i8 %0(ptr noundef nonnull align 8 dereferenceable(745) %this, i32 noundef %conv)
  ret i32 %conv
}